; Function Attrs: nounwind uwtable
define ptr @RSA_meth_dup(ptr noundef readonly captures(none) %0) local_unnamed_addr #0 {
  %2 = tail call noalias ptr @CRYPTO_malloc(i64 noundef 120, ptr noundef nonnull @.str, i32 noundef 47) #5
  %.not = icmp eq ptr %2, null
  br i1 %.not, label %7, label %3

3:                                                ; preds = %1
  tail call void @llvm.memcpy.p0.p0.i64(ptr noundef nonnull align 8 dereferenceable(120) %2, ptr noundef nonnull align 8 dereferenceable(120) %0, i64 120, i1 false)
  %4 = load ptr, ptr %0, align 8, !tbaa !10
  %5 = tail call noalias ptr @CRYPTO_strdup(ptr noundef %4, ptr noundef nonnull @.str, i32 noundef 52) #5
  store ptr %5, ptr %2, align 8, !tbaa !10
  %.not10 = icmp eq ptr %5, null
  br i1 %.not10, label %6, label %7

6:                                                ; preds = %3
  tail call void @CRYPTO_free(ptr noundef nonnull %2, ptr noundef nonnull @.str, i32 noundef 56) #5
  br label %7

7:                                                ; preds = %1, %6, %3
  %.0 = phi ptr [ %2, %3 ], [ null, %6 ], [ null, %1 ]
  ret ptr %.0
}